target datalayout = "e-m:e-p270:32:32-p271:32:32-p272:64:64-i64:64-i128:128-f80:128-n8:16:32:64-S128"
target triple = "x86_64-pc-linux-gnu"

%struct.AVFormatContext = type { ptr, ptr, ptr, ptr, ptr, i32, i32, ptr, i32, ptr, i32, ptr, ptr, i64, i64, i64, i32, i32, i32, i64, i64, ptr, i32, i32, ptr, i32, i32, i32, i32, ptr, i64, i32, i32, %struct.AVIOInterruptCB, i32, i32, i32, i32, i64, i32, i32, i32, i32, i32, i32, i32, i32, i32, i32, i32, i32, i64, i32, i32, i32, i32, i32, ptr, ptr, ptr, ptr, i32, ptr, ptr, ptr, ptr, i32, ptr, ptr, i64, ptr, ptr, ptr, i64 }
%struct.AVIOInterruptCB = type { ptr, ptr }
%struct.SegmentContext = type { ptr, i32, i32, i32, i32, ptr, ptr, ptr, ptr, ptr, i32, i32, i32, i32, i64, i64, i64, i32, i32, ptr, i32, ptr, i64, i64, i32, i32, ptr, ptr, i32, ptr, ptr, i32, i32, i32, i64, i32, i32, ptr, i32, i64, ptr, i32, i64, i32, i32, i32, [1024 x i8], %struct.SegmentListEntry, ptr, ptr }
%struct.SegmentListEntry = type { i32, double, double, i64, i64, ptr, ptr, i64 }
%struct.AVIOContext = type { ptr, ptr, i32, ptr, ptr, ptr, ptr, ptr, ptr, i64, i32, i32, i32, i32, i32, i64, ptr, ptr, ptr, ptr, i32, i32, ptr, ptr, ptr, i32, ptr, i64, i64 }

; Function Attrs: nounwind uwtable
define internal void @close_null_ctxp(ptr noundef %0) #0 {
  %2 = alloca ptr, align 8
  store ptr %0, ptr %2, align 8, !tbaa !149
  %3 = load ptr, ptr %2, align 8, !tbaa !149
  %4 = load ptr, ptr %3, align 8, !tbaa !151
  %5 = getelementptr inbounds nuw %struct.AVIOContext, ptr %4, i32 0, i32 1
  call void @av_freep(ptr noundef %5)
  %6 = load ptr, ptr %2, align 8, !tbaa !149
  call void @avio_context_free(ptr noundef %6)
  ret void
}

; Function Attrs: nounwind uwtable
define internal i32 @seg_write_header(ptr noundef %0) #0 {
  %2 = alloca i32, align 4
  %3 = alloca ptr, align 8
  %4 = alloca ptr, align 8
  %5 = alloca ptr, align 8
  %6 = alloca i32, align 4
  %7 = alloca i32, align 4
  store ptr %0, ptr %3, align 8, !tbaa !4
  call void @llvm.lifetime.start.p0(i64 8, ptr %4) #12
  %8 = load ptr, ptr %3, align 8, !tbaa !4
  %9 = getelementptr inbounds nuw %struct.AVFormatContext, ptr %8, i32 0, i32 3
  %10 = load ptr, ptr %9, align 8, !tbaa !9
  store ptr %10, ptr %4, align 8, !tbaa !26
  call void @llvm.lifetime.start.p0(i64 8, ptr %5) #12
  %11 = load ptr, ptr %4, align 8, !tbaa !26
  %12 = getelementptr inbounds nuw %struct.SegmentContext, ptr %11, i32 0, i32 6
  %13 = load ptr, ptr %12, align 8, !tbaa !28
  store ptr %13, ptr %5, align 8, !tbaa !4
  call void @llvm.lifetime.start.p0(i64 4, ptr %6) #12
  %14 = load ptr, ptr %4, align 8, !tbaa !26
  %15 = getelementptr inbounds nuw %struct.SegmentContext, ptr %14, i32 0, i32 18
  %16 = load i32, ptr %15, align 4, !tbaa !35
  %17 = icmp ne i32 %16, 0
  br i1 %17, label %26, label %18

18:                                               ; preds = %1
  %19 = load ptr, ptr %5, align 8, !tbaa !4
  %20 = call i32 @avformat_write_header(ptr noundef %19, ptr noundef null)
  store i32 %20, ptr %6, align 4, !tbaa !36
  %21 = load i32, ptr %6, align 4, !tbaa !36
  %22 = icmp slt i32 %21, 0
  br i1 %22, label %23, label %25

23:                                               ; preds = %18
  %24 = load i32, ptr %6, align 4, !tbaa !36
  store i32 %24, ptr %2, align 4
  store i32 1, ptr %7, align 4
  br label %79

25:                                               ; preds = %18
  br label %26

26:                                               ; preds = %25, %1
  %27 = load ptr, ptr %4, align 8, !tbaa !26
  %28 = getelementptr inbounds nuw %struct.SegmentContext, ptr %27, i32 0, i32 36
  %29 = load i32, ptr %28, align 4, !tbaa !37
  %30 = icmp ne i32 %29, 0
  br i1 %30, label %31, label %36

31:                                               ; preds = %26
  %32 = load ptr, ptr %4, align 8, !tbaa !26
  %33 = getelementptr inbounds nuw %struct.SegmentContext, ptr %32, i32 0, i32 37
  %34 = load ptr, ptr %33, align 8, !tbaa !38
  %35 = icmp ne ptr %34, null
  br i1 %35, label %36, label %78

36:                                               ; preds = %31, %26
  %37 = load ptr, ptr %4, align 8, !tbaa !26
  %38 = getelementptr inbounds nuw %struct.SegmentContext, ptr %37, i32 0, i32 37
  %39 = load ptr, ptr %38, align 8, !tbaa !38
  %40 = icmp ne ptr %39, null
  br i1 %40, label %41, label %48

41:                                               ; preds = %36
  %42 = load ptr, ptr %5, align 8, !tbaa !4
  %43 = call i32 @av_write_frame(ptr noundef %42, ptr noundef null)
  %44 = load ptr, ptr %5, align 8, !tbaa !4
  %45 = load ptr, ptr %5, align 8, !tbaa !4
  %46 = getelementptr inbounds nuw %struct.AVFormatContext, ptr %45, i32 0, i32 4
  %47 = call i32 @ff_format_io_close(ptr noundef %44, ptr noundef %46)
  br label %53

48:                                               ; preds = %36
  %49 = load ptr, ptr %5, align 8, !tbaa !4
  %50 = getelementptr inbounds nuw %struct.AVFormatContext, ptr %49, i32 0, i32 4
  call void @close_null_ctxp(ptr noundef %50)
  %51 = load ptr, ptr %4, align 8, !tbaa !26
  %52 = getelementptr inbounds nuw %struct.SegmentContext, ptr %51, i32 0, i32 12
  store i32 0, ptr %52, align 8, !tbaa !39
  br label %53

53:                                               ; preds = %48, %41
  %54 = load ptr, ptr %5, align 8, !tbaa !4
  %55 = getelementptr inbounds nuw %struct.AVFormatContext, ptr %54, i32 0, i32 71
  %56 = load ptr, ptr %55, align 8, !tbaa !40
  %57 = load ptr, ptr %5, align 8, !tbaa !4
  %58 = load ptr, ptr %5, align 8, !tbaa !4
  %59 = getelementptr inbounds nuw %struct.AVFormatContext, ptr %58, i32 0, i32 4
  %60 = load ptr, ptr %5, align 8, !tbaa !4
  %61 = getelementptr inbounds nuw %struct.AVFormatContext, ptr %60, i32 0, i32 12
  %62 = load ptr, ptr %61, align 8, !tbaa !41
  %63 = call i32 %56(ptr noundef %57, ptr noundef %59, ptr noundef %62, i32 noundef 2, ptr noundef null)
  store i32 %63, ptr %6, align 4, !tbaa !36
  %64 = icmp slt i32 %63, 0
  br i1 %64, label %65, label %67

65:                                               ; preds = %53
  %66 = load i32, ptr %6, align 4, !tbaa !36
  store i32 %66, ptr %2, align 4
  store i32 1, ptr %7, align 4
  br label %79

67:                                               ; preds = %53
  %68 = load ptr, ptr %4, align 8, !tbaa !26
  %69 = getelementptr inbounds nuw %struct.SegmentContext, ptr %68, i32 0, i32 35
  %70 = load i32, ptr %69, align 8, !tbaa !42
  %71 = icmp ne i32 %70, 0
  br i1 %71, label %77, label %72

72:                                               ; preds = %67
  %73 = load ptr, ptr %5, align 8, !tbaa !4
  %74 = getelementptr inbounds nuw %struct.AVFormatContext, ptr %73, i32 0, i32 4
  %75 = load ptr, ptr %74, align 8, !tbaa !43
  %76 = getelementptr inbounds nuw %struct.AVIOContext, ptr %75, i32 0, i32 20
  store i32 0, ptr %76, align 8, !tbaa !44
  br label %77

77:                                               ; preds = %72, %67
  br label %78

78:                                               ; preds = %77, %31
  store i32 0, ptr %2, align 4
  store i32 1, ptr %7, align 4
  br label %79

79:                                               ; preds = %78, %65, %23
  call void @llvm.lifetime.end.p0(i64 4, ptr %6) #12
  call void @llvm.lifetime.end.p0(i64 8, ptr %5) #12
  call void @llvm.lifetime.end.p0(i64 8, ptr %4) #12
  %80 = load i32, ptr %2, align 4
  ret i32 %80
}