; Function Attrs: nounwind uwtable
define internal range(i32 -2147483648, 1) i32 @seg_write_header(ptr noundef readonly captures(none) %0) #0 {
  %2 = getelementptr inbounds nuw i8, ptr %0, i64 24
  %3 = load ptr, ptr %2, align 8, !tbaa !4
  %4 = getelementptr inbounds nuw i8, ptr %3, i64 32
  %5 = load ptr, ptr %4, align 8, !tbaa !24
  %6 = getelementptr inbounds nuw i8, ptr %3, i64 108
  %7 = load i32, ptr %6, align 4, !tbaa !32
  %.not = icmp eq i32 %7, 0
  br i1 %.not, label %8, label %11

8:                                                ; preds = %1
  %9 = tail call i32 @avformat_write_header(ptr noundef %5, ptr noundef null) #13
  %10 = icmp slt i32 %9, 0
  br i1 %10, label %39, label %11

11:                                               ; preds = %8, %1
  %12 = getelementptr inbounds nuw i8, ptr %3, i64 228
  %13 = load i32, ptr %12, align 4, !tbaa !33
  %.not23 = icmp eq i32 %13, 0
  %.phi.trans.insert = getelementptr inbounds nuw i8, ptr %3, i64 232
  %.pre = load ptr, ptr %.phi.trans.insert, align 8, !tbaa !34
  %14 = icmp eq ptr %.pre, null
  br i1 %.not23, label %16, label %15

15:                                               ; preds = %11
  br i1 %14, label %39, label %.thread

16:                                               ; preds = %11
  br i1 %14, label %20, label %.thread

.thread:                                          ; preds = %15, %16
  %17 = tail call i32 @av_write_frame(ptr noundef %5, ptr noundef null) #13
  %18 = getelementptr inbounds nuw i8, ptr %5, i64 32
  %19 = tail call i32 @ff_format_io_close(ptr noundef %5, ptr noundef nonnull %18) #13
  br label %25

20:                                               ; preds = %16
  %21 = getelementptr inbounds nuw i8, ptr %5, i64 32
  %22 = load ptr, ptr %21, align 8, !tbaa !35
  %23 = getelementptr inbounds nuw i8, ptr %22, i64 8
  tail call void @av_freep(ptr noundef nonnull %23) #13
  tail call void @avio_context_free(ptr noundef nonnull %21) #13
  %24 = getelementptr inbounds nuw i8, ptr %3, i64 72
  store i32 0, ptr %24, align 8, !tbaa !36
  br label %25

25:                                               ; preds = %20, %.thread
  %26 = getelementptr inbounds nuw i8, ptr %5, i64 448
  %27 = load ptr, ptr %26, align 8, !tbaa !37
  %28 = getelementptr inbounds nuw i8, ptr %5, i64 32
  %29 = getelementptr inbounds nuw i8, ptr %5, i64 88
  %30 = load ptr, ptr %29, align 8, !tbaa !38
  %31 = tail call i32 %27(ptr noundef nonnull %5, ptr noundef nonnull %28, ptr noundef %30, i32 noundef 2, ptr noundef null) #13
  %32 = icmp slt i32 %31, 0
  br i1 %32, label %39, label %33

33:                                               ; preds = %25
  %34 = getelementptr inbounds nuw i8, ptr %3, i64 224
  %35 = load i32, ptr %34, align 8, !tbaa !39
  %.not26 = icmp eq i32 %35, 0
  br i1 %.not26, label %36, label %39

36:                                               ; preds = %33
  %37 = load ptr, ptr %28, align 8, !tbaa !40
  %38 = getelementptr inbounds nuw i8, ptr %37, i64 144
  store i32 0, ptr %38, align 8, !tbaa !41
  br label %39

39:                                               ; preds = %15, %36, %33, %25, %8
  %.0 = phi i32 [ %9, %8 ], [ %31, %25 ], [ 0, %33 ], [ 0, %36 ], [ 0, %15 ]
  ret i32 %.0
}